target datalayout = "e-m:e-p270:32:32-p271:32:32-p272:64:64-i64:64-i128:128-f80:128-n8:16:32:64-S128"
target triple = "x86_64-pc-linux-gnu"

%"class.cv::WBaseStream" = type { ptr, ptr, ptr, ptr, i32, i32, ptr, i8, ptr }

; Function Attrs: mustprogress nounwind uwtable
define hidden void @_ZN2cv11WBaseStreamC2Ev(ptr noundef nonnull align 8 dereferenceable(64) %0) unnamed_addr #0 align 2 {
  %2 = alloca ptr, align 8
  store ptr %0, ptr %2, align 8, !tbaa !59
  %3 = load ptr, ptr %2, align 8
  store ptr getelementptr inbounds inrange(-16, 64) ({ [10 x ptr] }, ptr @_ZTVN2cv11WBaseStreamE, i32 0, i32 0, i32 2), ptr %3, align 8, !tbaa !21
  %4 = getelementptr inbounds nuw %"class.cv::WBaseStream", ptr %3, i32 0, i32 3
  store ptr null, ptr %4, align 8, !tbaa !61
  %5 = getelementptr inbounds nuw %"class.cv::WBaseStream", ptr %3, i32 0, i32 2
  store ptr null, ptr %5, align 8, !tbaa !64
  %6 = getelementptr inbounds nuw %"class.cv::WBaseStream", ptr %3, i32 0, i32 1
  store ptr null, ptr %6, align 8, !tbaa !65
  %7 = getelementptr inbounds nuw %"class.cv::WBaseStream", ptr %3, i32 0, i32 6
  store ptr null, ptr %7, align 8, !tbaa !66
  %8 = getelementptr inbounds nuw %"class.cv::WBaseStream", ptr %3, i32 0, i32 5
  store i32 0, ptr %8, align 4, !tbaa !67
  %9 = getelementptr inbounds nuw %"class.cv::WBaseStream", ptr %3, i32 0, i32 4
  store i32 32768, ptr %9, align 8, !tbaa !68
  %10 = getelementptr inbounds nuw %"class.cv::WBaseStream", ptr %3, i32 0, i32 7
  store i8 0, ptr %10, align 8, !tbaa !69
  %11 = getelementptr inbounds nuw %"class.cv::WBaseStream", ptr %3, i32 0, i32 8
  store ptr null, ptr %11, align 8, !tbaa !70
  ret void
}